; Function Attrs: mustprogress uwtable
define internal void @_ZNK2cv4impl12_GLOBAL__N_120CvtColorLoop_InvokerINS_3hal12cpu_baseline12_GLOBAL__N_18RGB2GrayIhEEEclERKNS_5RangeE(ptr nocapture noundef nonnull readonly align 8 dereferenceable(56) %0, ptr nocapture noundef nonnull readonly align 4 dereferenceable(8) %1) unnamed_addr #0 align 2 personality ptr @__gxx_personality_v0 {
  %3 = alloca %"class.cv::utils::trace::details::Region", align 8
  call void @_ZN2cv5utils5trace7details6RegionC1ERKNS3_21LocationStaticStorageE(ptr noundef nonnull align 8 dereferenceable(12) %3, ptr noundef nonnull align 8 dereferenceable(32) @_ZZNK2cv4impl12_GLOBAL__N_120CvtColorLoop_InvokerINS_3hal12cpu_baseline12_GLOBAL__N_18RGB2GrayIhEEEclERKNS_5RangeEE25__cv_trace_location_fn146)
  %4 = load i32, ptr %1, align 4
  %5 = getelementptr inbounds i8, ptr %0, i64 16
  %6 = getelementptr inbounds i8, ptr %0, i64 32
  %7 = getelementptr inbounds i8, ptr %1, i64 4
  %8 = load i32, ptr %7, align 4
  %9 = icmp slt i32 %4, %8
  br i1 %9, label %.lr.ph, label %._crit_edge

.lr.ph:                                           ; preds = %2
  %10 = getelementptr inbounds i8, ptr %0, i64 40
  %11 = getelementptr inbounds i8, ptr %0, i64 48
  %12 = load i32, ptr %10, align 8
  %13 = icmp sgt i32 %12, 0
  br i1 %13, label %.lr.ph.split.preheader, label %._crit_edge

.lr.ph.split.preheader:                           ; preds = %.lr.ph
  %14 = getelementptr inbounds i8, ptr %0, i64 24
  %15 = load ptr, ptr %14, align 8
  %16 = load i64, ptr %6, align 8
  %17 = sext i32 %4 to i64
  %18 = mul i64 %16, %17
  %19 = getelementptr inbounds i8, ptr %15, i64 %18
  %20 = getelementptr inbounds i8, ptr %0, i64 8
  %21 = load ptr, ptr %20, align 8
  %22 = load i64, ptr %5, align 8
  %23 = mul i64 %22, %17
  %24 = getelementptr inbounds i8, ptr %21, i64 %23
  br label %.lr.ph.split

.lr.ph.split:                                     ; preds = %.lr.ph.split.preheader, %_ZNK2cv3hal12cpu_baseline12_GLOBAL__N_18RGB2GrayIhEclEPKhPhi.exit
  %25 = phi i32 [ %62, %_ZNK2cv3hal12cpu_baseline12_GLOBAL__N_18RGB2GrayIhEclEPKhPhi.exit ], [ %8, %.lr.ph.split.preheader ]
  %26 = phi i64 [ %63, %_ZNK2cv3hal12cpu_baseline12_GLOBAL__N_18RGB2GrayIhEclEPKhPhi.exit ], [ %16, %.lr.ph.split.preheader ]
  %27 = phi i64 [ %64, %_ZNK2cv3hal12cpu_baseline12_GLOBAL__N_18RGB2GrayIhEclEPKhPhi.exit ], [ %22, %.lr.ph.split.preheader ]
  %.014 = phi i32 [ %65, %_ZNK2cv3hal12cpu_baseline12_GLOBAL__N_18RGB2GrayIhEclEPKhPhi.exit ], [ %4, %.lr.ph.split.preheader ]
  %.01013 = phi ptr [ %67, %_ZNK2cv3hal12cpu_baseline12_GLOBAL__N_18RGB2GrayIhEclEPKhPhi.exit ], [ %19, %.lr.ph.split.preheader ]
  %.01112 = phi ptr [ %66, %_ZNK2cv3hal12cpu_baseline12_GLOBAL__N_18RGB2GrayIhEclEPKhPhi.exit ], [ %24, %.lr.ph.split.preheader ]
  %28 = load i32, ptr %10, align 8
  %29 = icmp sgt i32 %28, 0
  br i1 %29, label %.lr.ph.i, label %_ZNK2cv3hal12cpu_baseline12_GLOBAL__N_18RGB2GrayIhEclEPKhPhi.exit

.lr.ph.i:                                         ; preds = %.lr.ph.split
  %30 = load ptr, ptr %11, align 8
  %31 = getelementptr inbounds i8, ptr %30, i64 8
  %32 = load i16, ptr %31, align 4
  %33 = getelementptr inbounds i8, ptr %30, i64 6
  %34 = load i16, ptr %33, align 2
  %35 = getelementptr inbounds i8, ptr %30, i64 4
  %36 = load i16, ptr %35, align 4
  %37 = load i32, ptr %30, align 4
  %38 = sext i16 %36 to i32
  %39 = sext i16 %34 to i32
  %40 = sext i16 %32 to i32
  %41 = sext i32 %37 to i64
  br label %42

42:                                               ; preds = %42, %.lr.ph.i
  %.021.i = phi ptr [ %.01112, %.lr.ph.i ], [ %60, %42 ]
  %.01720.i = phi ptr [ %.01013, %.lr.ph.i ], [ %61, %42 ]
  %.01819.i = phi i32 [ 0, %.lr.ph.i ], [ %59, %42 ]
  %43 = load i8, ptr %.021.i, align 1
  %44 = zext i8 %43 to i32
  %45 = getelementptr inbounds i8, ptr %.021.i, i64 1
  %46 = load i8, ptr %45, align 1
  %47 = zext i8 %46 to i32
  %48 = getelementptr inbounds i8, ptr %.021.i, i64 2
  %49 = load i8, ptr %48, align 1
  %50 = zext i8 %49 to i32
  %51 = mul nsw i32 %44, %38
  %52 = mul nsw i32 %47, %39
  %53 = mul nsw i32 %50, %40
  %54 = add nsw i32 %51, 16384
  %55 = add nsw i32 %54, %52
  %56 = add nsw i32 %55, %53
  %57 = lshr i32 %56, 15
  %58 = trunc i32 %57 to i8
  store i8 %58, ptr %.01720.i, align 1
  %59 = add nuw nsw i32 %.01819.i, 1
  %60 = getelementptr inbounds i8, ptr %.021.i, i64 %41
  %61 = getelementptr inbounds i8, ptr %.01720.i, i64 1
  %exitcond.not.i = icmp eq i32 %59, %28
  br i1 %exitcond.not.i, label %_ZNK2cv3hal12cpu_baseline12_GLOBAL__N_18RGB2GrayIhEclEPKhPhi.exit.loopexit, label %42, !llvm.loop !66

_ZNK2cv3hal12cpu_baseline12_GLOBAL__N_18RGB2GrayIhEclEPKhPhi.exit.loopexit: ; preds = %42
  %.pre = load i64, ptr %5, align 8
  %.pre16 = load i64, ptr %6, align 8
  %.pre17 = load i32, ptr %7, align 4
  br label %_ZNK2cv3hal12cpu_baseline12_GLOBAL__N_18RGB2GrayIhEclEPKhPhi.exit

_ZNK2cv3hal12cpu_baseline12_GLOBAL__N_18RGB2GrayIhEclEPKhPhi.exit: ; preds = %_ZNK2cv3hal12cpu_baseline12_GLOBAL__N_18RGB2GrayIhEclEPKhPhi.exit.loopexit, %.lr.ph.split
  %62 = phi i32 [ %.pre17, %_ZNK2cv3hal12cpu_baseline12_GLOBAL__N_18RGB2GrayIhEclEPKhPhi.exit.loopexit ], [ %25, %.lr.ph.split ]
  %63 = phi i64 [ %.pre16, %_ZNK2cv3hal12cpu_baseline12_GLOBAL__N_18RGB2GrayIhEclEPKhPhi.exit.loopexit ], [ %26, %.lr.ph.split ]
  %64 = phi i64 [ %.pre, %_ZNK2cv3hal12cpu_baseline12_GLOBAL__N_18RGB2GrayIhEclEPKhPhi.exit.loopexit ], [ %27, %.lr.ph.split ]
  %65 = add nsw i32 %.014, 1
  %66 = getelementptr inbounds i8, ptr %.01112, i64 %64
  %67 = getelementptr inbounds i8, ptr %.01013, i64 %63
  %68 = icmp slt i32 %65, %62
  br i1 %68, label %.lr.ph.split, label %._crit_edge, !llvm.loop !67

._crit_edge:                                      ; preds = %_ZNK2cv3hal12cpu_baseline12_GLOBAL__N_18RGB2GrayIhEclEPKhPhi.exit, %.lr.ph, %2
  %69 = getelementptr inbounds i8, ptr %3, i64 8
  %70 = load i32, ptr %69, align 8
  %.not.i = icmp eq i32 %70, 0
  br i1 %.not.i, label %_ZN2cv5utils5trace7details6RegionD2Ev.exit, label %71

71:                                               ; preds = %._crit_edge
  invoke void @_ZN2cv5utils5trace7details6Region7destroyEv(ptr noundef nonnull align 8 dereferenceable(12) %3)
          to label %_ZN2cv5utils5trace7details6RegionD2Ev.exit unwind label %72

72:                                               ; preds = %71
  %73 = landingpad { ptr, i32 }
          catch ptr null
  %74 = extractvalue { ptr, i32 } %73, 0
  call void @__clang_call_terminate(ptr %74) #13
  unreachable

_ZN2cv5utils5trace7details6RegionD2Ev.exit:       ; preds = %._crit_edge, %71
  ret void
}